; Function Attrs: nounwind uwtable
define ptr @l_Lean_PrettyPrinter_Delaborator_SubExpr_nextExtraPos___rarg___lambda__3(ptr noundef %0, ptr noundef %1, ptr noundef %2, ptr noundef %3) #0 {
  %5 = getelementptr inbounds nuw i8, ptr %3, i64 8
  %6 = load ptr, ptr %5, align 8, !tbaa !5
  %7 = ptrtoint ptr %6 to i64
  %8 = and i64 %7, 1
  %.not = icmp eq i64 %8, 0
  br i1 %.not, label %9, label %lean_inc.exit16

9:                                                ; preds = %4
  %.val.i = load i32, ptr %6, align 4, !tbaa !9
  %10 = icmp sgt i32 %.val.i, 0
  br i1 %10, label %11, label %13, !prof !12

11:                                               ; preds = %9
  %12 = add nuw i32 %.val.i, 1
  store i32 %12, ptr %6, align 4, !tbaa !9
  br label %lean_inc.exit16

13:                                               ; preds = %9
  %.not.i20 = icmp eq i32 %.val.i, 0
  br i1 %.not.i20, label %lean_inc.exit16, label %14

14:                                               ; preds = %13
  tail call void @lean_inc_ref_cold(ptr noundef nonnull %6) #5
  br label %lean_inc.exit16

lean_inc.exit16:                                  ; preds = %14, %13, %11, %4
  %15 = ptrtoint ptr %3 to i64
  %16 = and i64 %15, 1
  %.not24 = icmp eq i64 %16, 0
  br i1 %.not24, label %17, label %lean_dec.exit17

17:                                               ; preds = %lean_inc.exit16
  %18 = load i32, ptr %3, align 4, !tbaa !9
  %19 = icmp sgt i32 %18, 1
  br i1 %19, label %20, label %22, !prof !12

20:                                               ; preds = %17
  %21 = add nsw i32 %18, -1
  store i32 %21, ptr %3, align 4, !tbaa !9
  br label %lean_dec.exit17

22:                                               ; preds = %17
  %.not.i = icmp eq i32 %18, 0
  br i1 %.not.i, label %lean_dec.exit17, label %23

23:                                               ; preds = %22
  tail call void @lean_dec_ref_cold(ptr noundef nonnull %3) #5
  br label %lean_dec.exit17

lean_dec.exit17:                                  ; preds = %23, %22, %20, %lean_inc.exit16
  %24 = getelementptr inbounds nuw i8, ptr %0, i64 24
  %25 = load ptr, ptr %24, align 8, !tbaa !5
  %26 = ptrtoint ptr %25 to i64
  %27 = and i64 %26, 1
  %.not25 = icmp eq i64 %27, 0
  br i1 %.not25, label %28, label %lean_inc.exit

28:                                               ; preds = %lean_dec.exit17
  %.val.i21 = load i32, ptr %25, align 4, !tbaa !9
  %29 = icmp sgt i32 %.val.i21, 0
  br i1 %29, label %30, label %32, !prof !12

30:                                               ; preds = %28
  %31 = add nuw i32 %.val.i21, 1
  store i32 %31, ptr %25, align 4, !tbaa !9
  br label %lean_inc.exit

32:                                               ; preds = %28
  %.not.i22 = icmp eq i32 %.val.i21, 0
  br i1 %.not.i22, label %lean_inc.exit, label %33

33:                                               ; preds = %32
  tail call void @lean_inc_ref_cold(ptr noundef nonnull %25) #5
  br label %lean_inc.exit

lean_inc.exit:                                    ; preds = %33, %32, %30, %lean_dec.exit17
  %34 = ptrtoint ptr %0 to i64
  %35 = and i64 %34, 1
  %.not26 = icmp eq i64 %35, 0
  br i1 %.not26, label %36, label %lean_dec.exit

36:                                               ; preds = %lean_inc.exit
  %37 = load i32, ptr %0, align 4, !tbaa !9
  %38 = icmp sgt i32 %37, 1
  br i1 %38, label %39, label %41, !prof !12

39:                                               ; preds = %36
  %40 = add nsw i32 %37, -1
  store i32 %40, ptr %0, align 4, !tbaa !9
  br label %lean_dec.exit

41:                                               ; preds = %36
  %.not.i18 = icmp eq i32 %37, 0
  br i1 %.not.i18, label %lean_dec.exit, label %42

42:                                               ; preds = %41
  tail call void @lean_dec_ref_cold(ptr noundef nonnull %0) #5
  br label %lean_dec.exit

lean_dec.exit:                                    ; preds = %42, %41, %39, %lean_inc.exit
  %43 = load ptr, ptr @l_Lean_PrettyPrinter_Delaborator_SubExpr_nextExtraPos___rarg___lambda__3___closed__1, align 8, !tbaa !5
  %44 = tail call ptr @lean_apply_2(ptr noundef %25, ptr noundef nonnull inttoptr (i64 1 to ptr), ptr noundef %43) #5
  tail call void @lean_inc_heartbeat() #5
  %45 = tail call noalias ptr @mi_malloc_small(i64 noundef 40) #5
  %46 = icmp eq ptr %45, null
  br i1 %46, label %47, label %lean_alloc_closure.exit

47:                                               ; preds = %lean_dec.exit
  tail call void @lean_internal_panic_out_of_memory() #6
  unreachable

lean_alloc_closure.exit:                          ; preds = %lean_dec.exit
  %48 = getelementptr inbounds nuw i8, ptr %45, i64 4
  store i32 1, ptr %45, align 4, !tbaa !9
  store i32 -184549336, ptr %48, align 4
  %49 = getelementptr inbounds nuw i8, ptr %45, i64 8
  store ptr @l_Lean_PrettyPrinter_Delaborator_SubExpr_nextExtraPos___rarg___lambda__2___boxed, ptr %49, align 8, !tbaa !5
  %50 = getelementptr inbounds nuw i8, ptr %45, i64 16
  store i16 3, ptr %50, align 8, !tbaa !17
  %51 = getelementptr inbounds nuw i8, ptr %45, i64 18
  store i16 2, ptr %51, align 2, !tbaa !17
  %52 = getelementptr inbounds nuw i8, ptr %45, i64 24
  store ptr %1, ptr %52, align 8, !tbaa !5
  %53 = getelementptr inbounds nuw i8, ptr %45, i64 32
  store ptr %6, ptr %53, align 8, !tbaa !5
  %54 = tail call ptr @lean_apply_4(ptr noundef %2, ptr noundef nonnull inttoptr (i64 1 to ptr), ptr noundef nonnull inttoptr (i64 1 to ptr), ptr noundef %44, ptr noundef nonnull %45) #5
  ret ptr %54
}